target datalayout = "e-m:e-p270:32:32-p271:32:32-p272:64:64-i64:64-i128:128-f80:128-n8:16:32:64-S128"
target triple = "x86_64-pc-linux-gnu"

%struct.ssl_ctx_st = type { ptr, %union.crypto_mutex_st, i16, i16, ptr, ptr, ptr, ptr, ptr, ptr, i64, ptr, ptr, i32, i32, i64, ptr, ptr, ptr, i32, ptr, ptr, ptr, ptr, ptr, ptr, %struct.crypto_ex_data_st, ptr, ptr, ptr, ptr, i32, i32, i32, ptr, ptr, ptr, i32, i32, [32 x i8], ptr, ptr, ptr, ptr, i16, ptr, ptr, [16 x i8], [16 x i8], [16 x i8], ptr, ptr, ptr, ptr, i8, ptr, ptr, ptr, ptr, ptr, ptr, ptr, i32, ptr, i64, ptr, ptr, ptr, i64, ptr, i64, ptr, ptr, i8, ptr, i32 }
%union.crypto_mutex_st = type { double, [48 x i8] }
%struct.crypto_ex_data_st = type { ptr }

@.str = private unnamed_addr constant [117 x i8] c"generated/home/dtcxzyw/WorkSpace/Projects/compilers/llvm-opt-benchmark/bench/libquic/libquic/boringssl/ssl/ssl_lib.c\00", align 1

; Function Attrs: nounwind uwtable
define hidden i32 @SSL_CTX_set_session_id_context(ptr noundef %0, ptr noundef %1, i32 noundef %2) #0 {
  %4 = alloca i32, align 4
  %5 = alloca ptr, align 8
  %6 = alloca ptr, align 8
  %7 = alloca i32, align 4
  store ptr %0, ptr %5, align 8, !tbaa !11
  store ptr %1, ptr %6, align 8, !tbaa !55
  store i32 %2, ptr %7, align 4, !tbaa !61
  %8 = load i32, ptr %7, align 4, !tbaa !61
  %9 = zext i32 %8 to i64
  %10 = icmp ugt i64 %9, 32
  br i1 %10, label %11, label %12

11:                                               ; preds = %3
  call void @ERR_put_error(i32 noundef 16, i32 noundef 0, i32 noundef 216, ptr noundef @.str, i32 noundef 945)
  store i32 0, ptr %4, align 4
  br label %22

12:                                               ; preds = %3
  %13 = load i32, ptr %7, align 4, !tbaa !61
  %14 = load ptr, ptr %5, align 8, !tbaa !11
  %15 = getelementptr inbounds nuw %struct.ssl_ctx_st, ptr %14, i32 0, i32 38
  store i32 %13, ptr %15, align 4, !tbaa !102
  %16 = load ptr, ptr %5, align 8, !tbaa !11
  %17 = getelementptr inbounds nuw %struct.ssl_ctx_st, ptr %16, i32 0, i32 39
  %18 = getelementptr inbounds [32 x i8], ptr %17, i64 0, i64 0
  %19 = load ptr, ptr %6, align 8, !tbaa !55
  %20 = load i32, ptr %7, align 4, !tbaa !61
  %21 = zext i32 %20 to i64
  call void @llvm.memcpy.p0.p0.i64(ptr align 8 %18, ptr align 1 %19, i64 %21, i1 false)
  store i32 1, ptr %4, align 4
  br label %22

22:                                               ; preds = %12, %11
  %23 = load i32, ptr %4, align 4
  ret i32 %23
}